target datalayout = "e-m:e-p270:32:32-p271:32:32-p272:64:64-i64:64-i128:128-f80:128-n8:16:32:64-S128"
target triple = "x86_64-pc-linux-gnu"

@je_opt_prof_sys_thread_name = hidden global i8 0, align 1

; Function Attrs: nounwind uwtable
define hidden i32 @je_prof_thread_name_set(ptr noundef %0, ptr noundef %1) #0 {
  %3 = alloca i32, align 4
  %4 = alloca ptr, align 8
  %5 = alloca ptr, align 8
  store ptr %0, ptr %4, align 8, !tbaa !4
  store ptr %1, ptr %5, align 8, !tbaa !77
  %6 = load i8, ptr @je_opt_prof_sys_thread_name, align 1, !tbaa !32, !range !33, !noundef !34
  %7 = trunc i8 %6 to i1
  br i1 %7, label %8, label %9

8:                                                ; preds = %2
  store i32 2, ptr %3, align 4
  br label %13

9:                                                ; preds = %2
  %10 = load ptr, ptr %4, align 8, !tbaa !4
  %11 = load ptr, ptr %5, align 8, !tbaa !77
  %12 = call i32 @je_prof_thread_name_set_impl(ptr noundef %10, ptr noundef %11)
  store i32 %12, ptr %3, align 4
  br label %13

13:                                               ; preds = %9, %8
  %14 = load i32, ptr %3, align 4
  ret i32 %14
}